; ModuleID = '21/1641.c'
source_filename = "21/1641.c"
target datalayout = "e-m:e-p270:32:32-p271:32:32-p272:64:64-i64:64-f80:128-n8:16:32:64-S128"
target triple = "x86_64-pc-linux-gnu"

@.str = private unnamed_addr constant [3 x i8] c"%d\00", align 1
@.str.1 = private unnamed_addr constant [6 x i8] c"%d,%d\00", align 1

; Function Attrs: noinline nounwind uwtable
define dso_local i32 @main() #0 {
  %1 = alloca i32, align 4
  %2 = alloca i32, align 4
  %3 = alloca [100 x i32], align 16
  %4 = alloca i32, align 4
  %5 = alloca i32, align 4
  %6 = alloca double, align 8
  %7 = alloca i32, align 4
  %8 = alloca i32, align 4
  %9 = alloca i32, align 4
  store i32 0, i32* %1, align 4
  %10 = call i32 (i8*, ...) @__isoc99_scanf(i8* getelementptr inbounds ([3 x i8], [3 x i8]* @.str, i64 0, i64 0), i32* %2)
  store i32 0, i32* %4, align 4
  store i32 0, i32* %5, align 4
  br label %11

11:                                               ; preds = %26, %0
  %12 = load i32, i32* %5, align 4
  %13 = load i32, i32* %2, align 4
  %14 = icmp slt i32 %12, %13
  br i1 %14, label %15, label %29

15:                                               ; preds = %11
  %16 = load i32, i32* %5, align 4
  %17 = sext i32 %16 to i64
  %18 = getelementptr inbounds [100 x i32], [100 x i32]* %3, i64 0, i64 %17
  %19 = call i32 (i8*, ...) @__isoc99_scanf(i8* getelementptr inbounds ([3 x i8], [3 x i8]* @.str, i64 0, i64 0), i32* %18)
  %20 = load i32, i32* %5, align 4
  %21 = sext i32 %20 to i64
  %22 = getelementptr inbounds [100 x i32], [100 x i32]* %3, i64 0, i64 %21
  %23 = load i32, i32* %22, align 4
  %24 = load i32, i32* %4, align 4
  %25 = add nsw i32 %24, %23
  store i32 %25, i32* %4, align 4
  br label %26

26:                                               ; preds = %15
  %27 = load i32, i32* %5, align 4
  %28 = add nsw i32 %27, 1
  store i32 %28, i32* %5, align 4
  br label %11

29:                                               ; preds = %11
  %30 = load i32, i32* %4, align 4
  %31 = sitofp i32 %30 to double
  %32 = fmul double 1.000000e+00, %31
  %33 = load i32, i32* %2, align 4
  %34 = sitofp i32 %33 to double
  %35 = fdiv double %32, %34
  store double %35, double* %6, align 8
  %36 = getelementptr inbounds [100 x i32], [100 x i32]* %3, i64 0, i64 0
  %37 = load i32, i32* %36, align 16
  store i32 %37, i32* %7, align 4
  %38 = getelementptr inbounds [100 x i32], [100 x i32]* %3, i64 0, i64 0
  %39 = load i32, i32* %38, align 16
  store i32 %39, i32* %8, align 4
  store i32 0, i32* %9, align 4
  br label %40

40:                                               ; preds = %69, %29
  %41 = load i32, i32* %9, align 4
  %42 = load i32, i32* %2, align 4
  %43 = icmp slt i32 %41, %42
  br i1 %43, label %44, label %72

44:                                               ; preds = %40
  %45 = load i32, i32* %9, align 4
  %46 = sext i32 %45 to i64
  %47 = getelementptr inbounds [100 x i32], [100 x i32]* %3, i64 0, i64 %46
  %48 = load i32, i32* %47, align 4
  %49 = load i32, i32* %8, align 4
  %50 = icmp sgt i32 %48, %49
  br i1 %50, label %51, label %56

51:                                               ; preds = %44
  %52 = load i32, i32* %9, align 4
  %53 = sext i32 %52 to i64
  %54 = getelementptr inbounds [100 x i32], [100 x i32]* %3, i64 0, i64 %53
  %55 = load i32, i32* %54, align 4
  store i32 %55, i32* %8, align 4
  br label %56

56:                                               ; preds = %51, %44
  %57 = load i32, i32* %9, align 4
  %58 = sext i32 %57 to i64
  %59 = getelementptr inbounds [100 x i32], [100 x i32]* %3, i64 0, i64 %58
  %60 = load i32, i32* %59, align 4
  %61 = load i32, i32* %7, align 4
  %62 = icmp slt i32 %60, %61
  br i1 %62, label %63, label %68

63:                                               ; preds = %56
  %64 = load i32, i32* %9, align 4
  %65 = sext i32 %64 to i64
  %66 = getelementptr inbounds [100 x i32], [100 x i32]* %3, i64 0, i64 %65
  %67 = load i32, i32* %66, align 4
  store i32 %67, i32* %7, align 4
  br label %68

68:                                               ; preds = %63, %56
  br label %69

69:                                               ; preds = %68
  %70 = load i32, i32* %9, align 4
  %71 = add nsw i32 %70, 1
  store i32 %71, i32* %9, align 4
  br label %40

72:                                               ; preds = %40
  %73 = load i32, i32* %8, align 4
  %74 = load i32, i32* %7, align 4
  %75 = add nsw i32 %73, %74
  %76 = sitofp i32 %75 to double
  %77 = fmul double 1.000000e+00, %76
  %78 = fdiv double %77, 2.000000e+00
  %79 = load double, double* %6, align 8
  %80 = fcmp oeq double %78, %79
  br i1 %80, label %81, label %85

81:                                               ; preds = %72
  %82 = load i32, i32* %7, align 4
  %83 = load i32, i32* %8, align 4
  %84 = call i32 (i8*, ...) @printf(i8* getelementptr inbounds ([6 x i8], [6 x i8]* @.str.1, i64 0, i64 0), i32 %82, i32 %83)
  br label %102

85:                                               ; preds = %72
  %86 = load double, double* %6, align 8
  %87 = load i32, i32* %7, align 4
  %88 = sitofp i32 %87 to double
  %89 = fsub double %86, %88
  %90 = load i32, i32* %8, align 4
  %91 = sitofp i32 %90 to double
  %92 = load double, double* %6, align 8
  %93 = fsub double %91, %92
  %94 = fcmp ogt double %89, %93
  br i1 %94, label %95, label %98

95:                                               ; preds = %85
  %96 = load i32, i32* %7, align 4
  %97 = call i32 (i8*, ...) @printf(i8* getelementptr inbounds ([3 x i8], [3 x i8]* @.str, i64 0, i64 0), i32 %96)
  br label %101

98:                                               ; preds = %85
  %99 = load i32, i32* %8, align 4
  %100 = call i32 (i8*, ...) @printf(i8* getelementptr inbounds ([3 x i8], [3 x i8]* @.str, i64 0, i64 0), i32 %99)
  br label %101

101:                                              ; preds = %98, %95
  br label %102

102:                                              ; preds = %101, %81
  ret i32 0
}

declare dso_local i32 @__isoc99_scanf(i8*, ...) #1

declare dso_local i32 @printf(i8*, ...) #1


!llvm.module.flags = !{!0}
!llvm.ident = !{!1}

!0 = !{i32 1, !"wchar_size", i32 4}
!1 = !{!"clang version 10.0.0-4ubuntu1 "}
